; Function Attrs: mustprogress nounwind uwtable
define dso_local void @_ZN4node6crypto10ByteSource21ReleaseToBackingStoreEv(ptr noalias sret(%"class.std::unique_ptr.264") align 8 %agg.result, ptr nocapture noundef nonnull align 8 dereferenceable(24) %this) local_unnamed_addr #4 align 2 {
entry:
  %size_ = getelementptr inbounds i8, ptr %this, i64 16
  %0 = load i64, ptr %size_, align 8
  %cmp.not = icmp ne i64 %0, 0
  %allocated_data_ = getelementptr inbounds i8, ptr %this, i64 8
  %1 = load ptr, ptr %allocated_data_, align 8
  %cmp2 = icmp eq ptr %1, null
  %lnot = select i1 %cmp.not, i1 %cmp2, i1 false
  br i1 %lnot, label %do.body5, label %do.end6

do.body5:                                         ; preds = %entry
  tail call void @_ZN4node6AssertERKNS_13AssertionInfoE(ptr noundef nonnull align 8 dereferenceable(24) @_ZZN4node6crypto10ByteSource21ReleaseToBackingStoreEvE4args) #25
  tail call void @abort() #27
  unreachable

do.end6:                                          ; preds = %entry
  tail call void @_ZN2v811ArrayBuffer15NewBackingStoreEPvmPFvS1_mS1_ES1_(ptr sret(%"class.std::unique_ptr.264") align 8 %agg.result, ptr noundef %1, i64 noundef %0, ptr noundef nonnull @"_ZZN4node6crypto10ByteSource21ReleaseToBackingStoreEvEN3$_08__invokeEPvmS3_", ptr noundef %1) #25
  %2 = load ptr, ptr %agg.result, align 8
  %cmp.i.not = icmp eq ptr %2, null
  br i1 %cmp.i.not, label %do.body16, label %do.end20

do.body16:                                        ; preds = %do.end6
  tail call void @_ZN4node6AssertERKNS_13AssertionInfoE(ptr noundef nonnull align 8 dereferenceable(24) @_ZZN4node6crypto10ByteSource21ReleaseToBackingStoreEvE4args_0) #25
  tail call void @abort() #27
  unreachable

do.end20:                                         ; preds = %do.end6
  tail call void @llvm.memset.p0.i64(ptr noundef nonnull align 8 dereferenceable(24) %this, i8 0, i64 24, i1 false)
  ret void
}